target datalayout = "e-m:e-p270:32:32-p271:32:32-p272:64:64-i64:64-i128:128-f80:128-n8:16:32:64-S128"
target triple = "x86_64-pc-linux-gnu"

%struct._packet_info = type { ptr, ptr, i32, i32, %struct.nstime_t, %struct.nstime_t, %struct.nstime_t, i8, ptr, ptr, ptr, ptr, %struct._address, %struct._address, %struct._address, %struct._address, %struct._address, %struct._address, i32, ptr, i8, [3 x i8], %struct.anon, i32, i32, i32, i32, ptr, i8, ptr, ptr, i16, i16, i32, i32, i16, i32, i32, ptr, ptr, ptr, i8, i8, i16, i16, i16, i32, i16, i16, ptr, ptr, ptr, ptr, ptr, i32, i32 }
%struct.nstime_t = type { i64, i32 }
%struct._address = type { i32, i32, ptr, ptr }
%struct.anon = type { i8, [3 x i8] }
%struct.ack_nack_request_t = type { i32, %struct.nstime_t, i32, i32, %struct.nstime_t }
%struct._proto_node = type { ptr, ptr, ptr, ptr, ptr, ptr, ptr }
%struct.field_info = type { ptr, i32, i32, i32, i32, i32, i32, ptr, ptr, ptr, i32, i32 }

@hf_oran_acknack_request_frame = internal global i32 0, align 4
@hf_oran_acknack_request_time = internal global i32 0, align 4
@hf_oran_acknack_request_type = internal global i32 0, align 4

; Function Attrs: inlinehint nounwind null_pointer_is_valid sspstrong uwtable
define internal void @proto_item_set_generated(ptr noundef %0) #5 {
  %2 = alloca ptr, align 8
  store ptr %0, ptr %2, align 8
  %3 = load ptr, ptr %2, align 8
  %4 = icmp ne ptr %3, null
  br i1 %4, label %5, label %24

5:                                                ; preds = %1
  br label %6

6:                                                ; preds = %5
  %7 = load ptr, ptr %2, align 8
  %8 = getelementptr inbounds nuw %struct._proto_node, ptr %7, i32 0, i32 5
  %9 = load ptr, ptr %8, align 8
  %10 = icmp ne ptr %9, null
  br i1 %10, label %11, label %22

11:                                               ; preds = %6
  %12 = load ptr, ptr %2, align 8
  %13 = getelementptr inbounds nuw %struct._proto_node, ptr %12, i32 0, i32 5
  %14 = load ptr, ptr %13, align 8
  %15 = getelementptr inbounds nuw %struct.field_info, ptr %14, i32 0, i32 6
  %16 = load i32, ptr %15, align 4
  %17 = or i32 %16, 2
  %18 = load ptr, ptr %2, align 8
  %19 = getelementptr inbounds nuw %struct._proto_node, ptr %18, i32 0, i32 5
  %20 = load ptr, ptr %19, align 8
  %21 = getelementptr inbounds nuw %struct.field_info, ptr %20, i32 0, i32 6
  store i32 %17, ptr %21, align 4
  br label %22

22:                                               ; preds = %11, %6
  br label %23

23:                                               ; preds = %22
  br label %24

24:                                               ; preds = %23, %1
  ret void
}

; Function Attrs: null_pointer_is_valid sspstrong uwtable
define internal void @show_link_to_acknack_request(ptr noundef %0, ptr noundef %1, ptr noundef %2, ptr noundef %3) #0 {
  %5 = alloca ptr, align 8
  %6 = alloca ptr, align 8
  %7 = alloca ptr, align 8
  %8 = alloca ptr, align 8
  %9 = alloca ptr, align 8
  %10 = alloca i32, align 4
  %11 = alloca i32, align 4
  %12 = alloca i32, align 4
  store ptr %0, ptr %5, align 8
  store ptr %1, ptr %6, align 8
  store ptr %2, ptr %7, align 8
  store ptr %3, ptr %8, align 8
  call void @llvm.lifetime.start.p0(i64 8, ptr %9) #12
  %13 = load ptr, ptr %5, align 8
  %14 = load i32, ptr @hf_oran_acknack_request_frame, align 4
  %15 = load ptr, ptr %6, align 8
  %16 = load ptr, ptr %8, align 8
  %17 = getelementptr inbounds nuw %struct.ack_nack_request_t, ptr %16, i32 0, i32 0
  %18 = load i32, ptr %17, align 8
  %19 = call ptr @proto_tree_add_uint(ptr noundef %13, i32 noundef %14, ptr noundef %15, i32 noundef 0, i32 noundef 0, i32 noundef %18)
  store ptr %19, ptr %9, align 8
  %20 = load ptr, ptr %9, align 8
  call void @proto_item_set_generated(ptr noundef %20)
  call void @llvm.lifetime.start.p0(i64 4, ptr %10) #12
  %21 = load ptr, ptr %7, align 8
  %22 = getelementptr inbounds nuw %struct._packet_info, ptr %21, i32 0, i32 4
  %23 = getelementptr inbounds nuw %struct.nstime_t, ptr %22, i32 0, i32 0
  %24 = load i64, ptr %23, align 8
  %25 = load ptr, ptr %8, align 8
  %26 = getelementptr inbounds nuw %struct.ack_nack_request_t, ptr %25, i32 0, i32 1
  %27 = getelementptr inbounds nuw %struct.nstime_t, ptr %26, i32 0, i32 0
  %28 = load i64, ptr %27, align 8
  %29 = sub i64 %24, %28
  %30 = trunc i64 %29 to i32
  store i32 %30, ptr %10, align 4
  call void @llvm.lifetime.start.p0(i64 4, ptr %11) #12
  %31 = load ptr, ptr %7, align 8
  %32 = getelementptr inbounds nuw %struct._packet_info, ptr %31, i32 0, i32 4
  %33 = getelementptr inbounds nuw %struct.nstime_t, ptr %32, i32 0, i32 1
  %34 = load i32, ptr %33, align 8
  %35 = load ptr, ptr %8, align 8
  %36 = getelementptr inbounds nuw %struct.ack_nack_request_t, ptr %35, i32 0, i32 1
  %37 = getelementptr inbounds nuw %struct.nstime_t, ptr %36, i32 0, i32 1
  %38 = load i32, ptr %37, align 8
  %39 = sub i32 %34, %38
  store i32 %39, ptr %11, align 4
  call void @llvm.lifetime.start.p0(i64 4, ptr %12) #12
  %40 = load i32, ptr %10, align 4
  %41 = mul i32 %40, 1000
  %42 = load i32, ptr %11, align 4
  %43 = add i32 %42, 500000
  %44 = sdiv i32 %43, 1000000
  %45 = add i32 %41, %44
  store i32 %45, ptr %12, align 4
  %46 = load ptr, ptr %5, align 8
  %47 = load i32, ptr @hf_oran_acknack_request_time, align 4
  %48 = load ptr, ptr %6, align 8
  %49 = load i32, ptr %12, align 4
  %50 = call ptr @proto_tree_add_uint(ptr noundef %46, i32 noundef %47, ptr noundef %48, i32 noundef 0, i32 noundef 0, i32 noundef %49)
  store ptr %50, ptr %9, align 8
  %51 = load ptr, ptr %9, align 8
  call void @proto_item_set_generated(ptr noundef %51)
  %52 = load ptr, ptr %5, align 8
  %53 = load i32, ptr @hf_oran_acknack_request_type, align 4
  %54 = load ptr, ptr %6, align 8
  %55 = load ptr, ptr %8, align 8
  %56 = getelementptr inbounds nuw %struct.ack_nack_request_t, ptr %55, i32 0, i32 2
  %57 = load i32, ptr %56, align 8
  %58 = call ptr @proto_tree_add_uint(ptr noundef %52, i32 noundef %53, ptr noundef %54, i32 noundef 0, i32 noundef 0, i32 noundef %57)
  store ptr %58, ptr %9, align 8
  %59 = load ptr, ptr %9, align 8
  call void @proto_item_set_generated(ptr noundef %59)
  call void @llvm.lifetime.end.p0(i64 4, ptr %12) #12
  call void @llvm.lifetime.end.p0(i64 4, ptr %11) #12
  call void @llvm.lifetime.end.p0(i64 4, ptr %10) #12
  call void @llvm.lifetime.end.p0(i64 8, ptr %9) #12
  ret void
}