; Function Attrs: null_pointer_is_valid sspstrong uwtable
define internal fastcc void @show_link_to_acknack_request(ptr noundef %0, ptr noundef %1, ptr noundef readonly captures(none) %2, ptr noundef nonnull readonly captures(none) %3) unnamed_addr #0 {
  %5 = load i32, ptr @hf_oran_acknack_request_frame, align 4
  %6 = load i32, ptr %3, align 8
  %7 = tail call ptr @proto_tree_add_uint(ptr noundef %0, i32 noundef %5, ptr noundef %1, i32 noundef 0, i32 noundef 0, i32 noundef %6)
  %.not.i = icmp eq ptr %7, null
  br i1 %.not.i, label %proto_item_set_generated.exit, label %8

8:                                                ; preds = %4
  %9 = getelementptr inbounds nuw i8, ptr %7, i64 40
  %10 = load ptr, ptr %9, align 8
  %.not5.i = icmp eq ptr %10, null
  br i1 %.not5.i, label %proto_item_set_generated.exit, label %11

11:                                               ; preds = %8
  %12 = getelementptr inbounds nuw i8, ptr %10, i64 28
  %13 = load i32, ptr %12, align 4
  %14 = or i32 %13, 2
  store i32 %14, ptr %12, align 4
  br label %proto_item_set_generated.exit

proto_item_set_generated.exit:                    ; preds = %4, %8, %11
  %15 = getelementptr inbounds nuw i8, ptr %2, i64 24
  %16 = load i64, ptr %15, align 8
  %17 = getelementptr inbounds nuw i8, ptr %3, i64 8
  %18 = load i64, ptr %17, align 8
  %19 = sub i64 %16, %18
  %20 = trunc i64 %19 to i32
  %21 = getelementptr inbounds nuw i8, ptr %2, i64 32
  %22 = load i32, ptr %21, align 8
  %23 = getelementptr inbounds nuw i8, ptr %3, i64 16
  %24 = load i32, ptr %23, align 8
  %25 = mul i32 %20, 1000
  %26 = add i32 %22, 500000
  %27 = sub i32 %26, %24
  %28 = sdiv i32 %27, 1000000
  %29 = add i32 %28, %25
  %30 = load i32, ptr @hf_oran_acknack_request_time, align 4
  %31 = tail call ptr @proto_tree_add_uint(ptr noundef %0, i32 noundef %30, ptr noundef %1, i32 noundef 0, i32 noundef 0, i32 noundef %29)
  %.not.i17 = icmp eq ptr %31, null
  br i1 %.not.i17, label %proto_item_set_generated.exit19, label %32

32:                                               ; preds = %proto_item_set_generated.exit
  %33 = getelementptr inbounds nuw i8, ptr %31, i64 40
  %34 = load ptr, ptr %33, align 8
  %.not5.i18 = icmp eq ptr %34, null
  br i1 %.not5.i18, label %proto_item_set_generated.exit19, label %35

35:                                               ; preds = %32
  %36 = getelementptr inbounds nuw i8, ptr %34, i64 28
  %37 = load i32, ptr %36, align 4
  %38 = or i32 %37, 2
  store i32 %38, ptr %36, align 4
  br label %proto_item_set_generated.exit19

proto_item_set_generated.exit19:                  ; preds = %proto_item_set_generated.exit, %32, %35
  %39 = load i32, ptr @hf_oran_acknack_request_type, align 4
  %40 = getelementptr inbounds nuw i8, ptr %3, i64 24
  %41 = load i32, ptr %40, align 8
  %42 = tail call ptr @proto_tree_add_uint(ptr noundef %0, i32 noundef %39, ptr noundef %1, i32 noundef 0, i32 noundef 0, i32 noundef %41)
  %.not.i20 = icmp eq ptr %42, null
  br i1 %.not.i20, label %proto_item_set_generated.exit22, label %43

43:                                               ; preds = %proto_item_set_generated.exit19
  %44 = getelementptr inbounds nuw i8, ptr %42, i64 40
  %45 = load ptr, ptr %44, align 8
  %.not5.i21 = icmp eq ptr %45, null
  br i1 %.not5.i21, label %proto_item_set_generated.exit22, label %46

46:                                               ; preds = %43
  %47 = getelementptr inbounds nuw i8, ptr %45, i64 28
  %48 = load i32, ptr %47, align 4
  %49 = or i32 %48, 2
  store i32 %49, ptr %47, align 4
  br label %proto_item_set_generated.exit22

proto_item_set_generated.exit22:                  ; preds = %proto_item_set_generated.exit19, %43, %46
  ret void
}